; Function Attrs: mustprogress nofree norecurse nosync nounwind willreturn memory(read, inaccessiblemem: none) uwtable
define hidden range(i32 0, 2) i32 @mz_zip_reader_is_file_a_directory(ptr noundef readonly %pZip, i32 noundef %file_index) local_unnamed_addr #17 {
entry:
  %tobool.i.not = icmp eq ptr %pZip, null
  br i1 %tobool.i.not, label %return, label %lor.lhs.false.i

lor.lhs.false.i:                                  ; preds = %entry
  %m_pState.i = getelementptr inbounds nuw i8, ptr %pZip, i64 104
  %0 = load ptr, ptr %m_pState.i, align 8
  %tobool1.i.not = icmp eq ptr %0, null
  br i1 %tobool1.i.not, label %return, label %lor.lhs.false2.i

lor.lhs.false2.i:                                 ; preds = %lor.lhs.false.i
  %m_total_files.i = getelementptr inbounds nuw i8, ptr %pZip, i64 16
  %1 = load i32, ptr %m_total_files.i, align 8
  %cmp.i.not = icmp ult i32 %file_index, %1
  br i1 %cmp.i.not, label %lor.lhs.false3.i, label %return

lor.lhs.false3.i:                                 ; preds = %lor.lhs.false2.i
  %m_zip_mode.i = getelementptr inbounds nuw i8, ptr %pZip, i64 20
  %2 = load i32, ptr %m_zip_mode.i, align 4
  %cmp4.i.not = icmp eq i32 %2, 1
  br i1 %cmp4.i.not, label %mz_zip_reader_get_cdh.exit, label %return

mz_zip_reader_get_cdh.exit:                       ; preds = %lor.lhs.false3.i
  %3 = load ptr, ptr %0, align 8
  %m_central_dir_offsets.i = getelementptr inbounds nuw i8, ptr %0, i64 32
  %4 = load ptr, ptr %m_central_dir_offsets.i, align 8
  %idxprom.i = zext i32 %file_index to i64
  %arrayidx.i = getelementptr inbounds nuw i32, ptr %4, i64 %idxprom.i
  %5 = load i32, ptr %arrayidx.i, align 4
  %idxprom8.i = zext i32 %5 to i64
  %arrayidx9.i = getelementptr inbounds nuw i8, ptr %3, i64 %idxprom8.i
  %tobool.not = icmp eq ptr %3, null
  br i1 %tobool.not, label %return, label %if.end

if.end:                                           ; preds = %mz_zip_reader_get_cdh.exit
  %add.ptr = getelementptr inbounds nuw i8, ptr %arrayidx9.i, i64 28
  %6 = load i16, ptr %add.ptr, align 2
  %tobool1.not = icmp eq i16 %6, 0
  br i1 %tobool1.not, label %if.end10, label %if.then2

if.then2:                                         ; preds = %if.end
  %add.ptr3 = getelementptr inbounds nuw i8, ptr %arrayidx9.i, i64 46
  %idx.ext = zext i16 %6 to i64
  %add.ptr4 = getelementptr inbounds nuw i8, ptr %add.ptr3, i64 %idx.ext
  %add.ptr5 = getelementptr inbounds i8, ptr %add.ptr4, i64 -1
  %7 = load i8, ptr %add.ptr5, align 1
  %cmp = icmp eq i8 %7, 47
  br i1 %cmp, label %return, label %if.end10

if.end10:                                         ; preds = %if.then2, %if.end
  %add.ptr11 = getelementptr inbounds nuw i8, ptr %arrayidx9.i, i64 38
  %8 = load i32, ptr %add.ptr11, align 4
  %and = lshr i32 %8, 4
  %and.lobit = and i32 %and, 1
  br label %return

return:                                           ; preds = %entry, %lor.lhs.false.i, %lor.lhs.false2.i, %lor.lhs.false3.i, %if.end10, %if.then2, %mz_zip_reader_get_cdh.exit
  %retval.0 = phi i32 [ 0, %mz_zip_reader_get_cdh.exit ], [ 1, %if.then2 ], [ %and.lobit, %if.end10 ], [ 0, %lor.lhs.false3.i ], [ 0, %lor.lhs.false2.i ], [ 0, %lor.lhs.false.i ], [ 0, %entry ]
  ret i32 %retval.0
}